target datalayout = "e-m:e-p270:32:32-p271:32:32-p272:64:64-i64:64-i128:128-f80:128-n8:16:32:64-S128"
target triple = "x86_64-pc-linux-gnu"

%"struct.duckdb_zstd::ZSTD_outBuffer_s" = type { ptr, i64, i64 }

; Function Attrs: mustprogress uwtable
define noundef i64 @_ZN11duckdb_zstd19ZBUFF_compressFlushEPNS_11ZSTD_CCtx_sEPvPm(ptr noundef %0, ptr noundef %1, ptr noundef %2) #0 {
  %4 = alloca ptr, align 8
  %5 = alloca ptr, align 8
  %6 = alloca ptr, align 8
  %7 = alloca i64, align 8
  %8 = alloca %"struct.duckdb_zstd::ZSTD_outBuffer_s", align 8
  store ptr %0, ptr %4, align 8, !tbaa !8
  store ptr %1, ptr %5, align 8, !tbaa !4
  store ptr %2, ptr %6, align 8, !tbaa !32
  call void @llvm.lifetime.start.p0(i64 8, ptr %7) #5
  call void @llvm.lifetime.start.p0(i64 24, ptr %8) #5
  %9 = load ptr, ptr %5, align 8, !tbaa !4
  %10 = getelementptr inbounds nuw %"struct.duckdb_zstd::ZSTD_outBuffer_s", ptr %8, i32 0, i32 0
  store ptr %9, ptr %10, align 8, !tbaa !34
  %11 = getelementptr inbounds nuw %"struct.duckdb_zstd::ZSTD_outBuffer_s", ptr %8, i32 0, i32 2
  store i64 0, ptr %11, align 8, !tbaa !36
  %12 = load ptr, ptr %6, align 8, !tbaa !32
  %13 = load i64, ptr %12, align 8, !tbaa !10
  %14 = getelementptr inbounds nuw %"struct.duckdb_zstd::ZSTD_outBuffer_s", ptr %8, i32 0, i32 1
  store i64 %13, ptr %14, align 8, !tbaa !37
  %15 = load ptr, ptr %4, align 8, !tbaa !8
  %16 = call noundef i64 @_ZN11duckdb_zstd16ZSTD_flushStreamEPNS_11ZSTD_CCtx_sEPNS_16ZSTD_outBuffer_sE(ptr noundef %15, ptr noundef %8)
  store i64 %16, ptr %7, align 8, !tbaa !10
  %17 = getelementptr inbounds nuw %"struct.duckdb_zstd::ZSTD_outBuffer_s", ptr %8, i32 0, i32 2
  %18 = load i64, ptr %17, align 8, !tbaa !36
  %19 = load ptr, ptr %6, align 8, !tbaa !32
  store i64 %18, ptr %19, align 8, !tbaa !10
  %20 = load i64, ptr %7, align 8, !tbaa !10
  call void @llvm.lifetime.end.p0(i64 24, ptr %8) #5
  call void @llvm.lifetime.end.p0(i64 8, ptr %7) #5
  ret i64 %20
}