; Function Attrs: mustprogress uwtable
define noundef i64 @_ZN11duckdb_zstd19ZBUFF_compressFlushEPNS_11ZSTD_CCtx_sEPvPm(ptr noundef %0, ptr noundef %1, ptr noundef captures(none) %2) local_unnamed_addr #0 {
  %4 = alloca %"struct.duckdb_zstd::ZSTD_outBuffer_s", align 8
  call void @llvm.lifetime.start.p0(i64 24, ptr nonnull %4) #3
  store ptr %1, ptr %4, align 8, !tbaa !20
  %5 = getelementptr inbounds nuw i8, ptr %4, i64 16
  store i64 0, ptr %5, align 8, !tbaa !24
  %6 = load i64, ptr %2, align 8, !tbaa !25
  %7 = getelementptr inbounds nuw i8, ptr %4, i64 8
  store i64 %6, ptr %7, align 8, !tbaa !26
  %8 = call noundef i64 @_ZN11duckdb_zstd16ZSTD_flushStreamEPNS_11ZSTD_CCtx_sEPNS_16ZSTD_outBuffer_sE(ptr noundef %0, ptr noundef nonnull %4)
  %9 = load i64, ptr %5, align 8, !tbaa !24
  store i64 %9, ptr %2, align 8, !tbaa !25
  call void @llvm.lifetime.end.p0(i64 24, ptr nonnull %4) #3
  ret i64 %8
}